target datalayout = "e-m:e-p270:32:32-p271:32:32-p272:64:64-i64:64-i128:128-f80:128-n8:16:32:64-S128"
target triple = "x86_64-pc-linux-gnu"

%struct.lexbor_mraw_t = type { ptr, ptr, i64 }
%struct.lexbor_bst = type { ptr, ptr, i64 }
%struct.lexbor_mem = type { ptr, ptr, i64, i64 }
%struct.lexbor_mem_chunk = type { ptr, i64, i64, ptr, ptr }

; Function Attrs: nounwind uwtable
define internal i64 @lexbor_mem_align_floor(i64 noundef %0) #0 {
  %2 = alloca i64, align 8
  store i64 %0, ptr %2, align 8
  %3 = load i64, ptr %2, align 8
  %4 = urem i64 %3, 8
  %5 = icmp ne i64 %4, 0
  br i1 %5, label %6, label %11

6:                                                ; preds = %1
  %7 = load i64, ptr %2, align 8
  %8 = load i64, ptr %2, align 8
  %9 = urem i64 %8, 8
  %10 = sub i64 %7, %9
  br label %13

11:                                               ; preds = %1
  %12 = load i64, ptr %2, align 8
  br label %13

13:                                               ; preds = %11, %6
  %14 = phi i64 [ %10, %6 ], [ %12, %11 ]
  ret i64 %14
}

; Function Attrs: nounwind uwtable
define internal ptr @lexbor_mraw_mem_alloc(ptr noundef %0, i64 noundef %1) #0 {
  %3 = alloca ptr, align 8
  %4 = alloca ptr, align 8
  %5 = alloca i64, align 8
  %6 = alloca ptr, align 8
  %7 = alloca ptr, align 8
  %8 = alloca ptr, align 8
  %9 = alloca i64, align 8
  store ptr %0, ptr %4, align 8
  store i64 %1, ptr %5, align 8
  %10 = load ptr, ptr %4, align 8
  %11 = getelementptr inbounds %struct.lexbor_mraw_t, ptr %10, i32 0, i32 0
  %12 = load ptr, ptr %11, align 8
  store ptr %12, ptr %7, align 8
  %13 = load i64, ptr %5, align 8
  %14 = icmp eq i64 %13, 0
  br i1 %14, label %15, label %16

15:                                               ; preds = %2
  store ptr null, ptr %3, align 8
  br label %150

16:                                               ; preds = %2
  %17 = load ptr, ptr %7, align 8
  %18 = getelementptr inbounds %struct.lexbor_mem, ptr %17, i32 0, i32 0
  %19 = load ptr, ptr %18, align 8
  %20 = getelementptr inbounds %struct.lexbor_mem_chunk, ptr %19, i32 0, i32 1
  %21 = load i64, ptr %20, align 8
  %22 = load i64, ptr %5, align 8
  %23 = add i64 %21, %22
  %24 = load ptr, ptr %7, align 8
  %25 = getelementptr inbounds %struct.lexbor_mem, ptr %24, i32 0, i32 0
  %26 = load ptr, ptr %25, align 8
  %27 = getelementptr inbounds %struct.lexbor_mem_chunk, ptr %26, i32 0, i32 2
  %28 = load i64, ptr %27, align 8
  %29 = icmp ugt i64 %23, %28
  br i1 %29, label %30, label %130

30:                                               ; preds = %16
  %31 = load ptr, ptr %7, align 8
  %32 = getelementptr inbounds %struct.lexbor_mem, ptr %31, i32 0, i32 0
  %33 = load ptr, ptr %32, align 8
  store ptr %33, ptr %8, align 8
  %34 = load ptr, ptr %7, align 8
  %35 = getelementptr inbounds %struct.lexbor_mem, ptr %34, i32 0, i32 3
  %36 = load i64, ptr %35, align 8
  %37 = sub i64 -1, %36
  %38 = icmp eq i64 %37, 0
  br i1 %38, label %39, label %40

39:                                               ; preds = %30
  store ptr null, ptr %3, align 8
  br label %150

40:                                               ; preds = %30
  %41 = load ptr, ptr %8, align 8
  %42 = getelementptr inbounds %struct.lexbor_mem_chunk, ptr %41, i32 0, i32 1
  %43 = load i64, ptr %42, align 8
  %44 = icmp eq i64 %43, 0
  br i1 %44, label %45, label %59

45:                                               ; preds = %40
  %46 = load ptr, ptr %7, align 8
  %47 = load ptr, ptr %8, align 8
  %48 = call ptr @lexbor_mem_chunk_destroy(ptr noundef %46, ptr noundef %47, i1 noundef zeroext false)
  %49 = load ptr, ptr %7, align 8
  %50 = load ptr, ptr %8, align 8
  %51 = load i64, ptr %5, align 8
  %52 = call ptr @lexbor_mem_chunk_init(ptr noundef %49, ptr noundef %50, i64 noundef %51)
  %53 = load i64, ptr %5, align 8
  %54 = load ptr, ptr %8, align 8
  %55 = getelementptr inbounds %struct.lexbor_mem_chunk, ptr %54, i32 0, i32 1
  store i64 %53, ptr %55, align 8
  %56 = load ptr, ptr %8, align 8
  %57 = getelementptr inbounds %struct.lexbor_mem_chunk, ptr %56, i32 0, i32 0
  %58 = load ptr, ptr %57, align 8
  store ptr %58, ptr %3, align 8
  br label %150

59:                                               ; preds = %40
  %60 = load ptr, ptr %8, align 8
  %61 = getelementptr inbounds %struct.lexbor_mem_chunk, ptr %60, i32 0, i32 2
  %62 = load i64, ptr %61, align 8
  %63 = load ptr, ptr %8, align 8
  %64 = getelementptr inbounds %struct.lexbor_mem_chunk, ptr %63, i32 0, i32 1
  %65 = load i64, ptr %64, align 8
  %66 = sub i64 %62, %65
  %67 = call i64 @lexbor_mem_align_floor(i64 noundef %66)
  store i64 %67, ptr %9, align 8
  %68 = load i64, ptr %9, align 8
  %69 = icmp ugt i64 %68, 8
  br i1 %69, label %70, label %104

70:                                               ; preds = %59
  %71 = load i64, ptr %9, align 8
  %72 = sub i64 %71, 8
  store i64 %72, ptr %9, align 8
  br label %73

73:                                               ; preds = %70
  %74 = load ptr, ptr %8, align 8
  %75 = getelementptr inbounds %struct.lexbor_mem_chunk, ptr %74, i32 0, i32 0
  %76 = load ptr, ptr %75, align 8
  %77 = load ptr, ptr %8, align 8
  %78 = getelementptr inbounds %struct.lexbor_mem_chunk, ptr %77, i32 0, i32 1
  %79 = load i64, ptr %78, align 8
  %80 = getelementptr inbounds i8, ptr %76, i64 %79
  call void @llvm.memcpy.p0.p0.i64(ptr align 1 %80, ptr align 8 %9, i64 8, i1 false)
  br label %81

81:                                               ; preds = %73
  %82 = load ptr, ptr %4, align 8
  %83 = getelementptr inbounds %struct.lexbor_mraw_t, ptr %82, i32 0, i32 1
  %84 = load ptr, ptr %83, align 8
  %85 = load ptr, ptr %4, align 8
  %86 = getelementptr inbounds %struct.lexbor_mraw_t, ptr %85, i32 0, i32 1
  %87 = load ptr, ptr %86, align 8
  %88 = getelementptr inbounds %struct.lexbor_bst, ptr %87, i32 0, i32 1
  %89 = load i64, ptr %9, align 8
  %90 = load ptr, ptr %8, align 8
  %91 = getelementptr inbounds %struct.lexbor_mem_chunk, ptr %90, i32 0, i32 0
  %92 = load ptr, ptr %91, align 8
  %93 = load ptr, ptr %8, align 8
  %94 = getelementptr inbounds %struct.lexbor_mem_chunk, ptr %93, i32 0, i32 1
  %95 = load i64, ptr %94, align 8
  %96 = getelementptr inbounds i8, ptr %92, i64 %95
  %97 = getelementptr inbounds i8, ptr %96, i64 8
  %98 = call ptr @lexbor_bst_insert(ptr noundef %84, ptr noundef %88, i64 noundef %89, ptr noundef %97)
  %99 = load ptr, ptr %8, align 8
  %100 = getelementptr inbounds %struct.lexbor_mem_chunk, ptr %99, i32 0, i32 2
  %101 = load i64, ptr %100, align 8
  %102 = load ptr, ptr %8, align 8
  %103 = getelementptr inbounds %struct.lexbor_mem_chunk, ptr %102, i32 0, i32 1
  store i64 %101, ptr %103, align 8
  br label %104

104:                                              ; preds = %81, %59
  %105 = load ptr, ptr %7, align 8
  %106 = load i64, ptr %5, align 8
  %107 = call ptr @lexbor_mem_chunk_make(ptr noundef %105, i64 noundef %106)
  %108 = load ptr, ptr %8, align 8
  %109 = getelementptr inbounds %struct.lexbor_mem_chunk, ptr %108, i32 0, i32 3
  store ptr %107, ptr %109, align 8
  %110 = load ptr, ptr %8, align 8
  %111 = getelementptr inbounds %struct.lexbor_mem_chunk, ptr %110, i32 0, i32 3
  %112 = load ptr, ptr %111, align 8
  %113 = icmp eq ptr %112, null
  br i1 %113, label %114, label %115

114:                                              ; preds = %104
  store ptr null, ptr %3, align 8
  br label %150

115:                                              ; preds = %104
  %116 = load ptr, ptr %8, align 8
  %117 = load ptr, ptr %8, align 8
  %118 = getelementptr inbounds %struct.lexbor_mem_chunk, ptr %117, i32 0, i32 3
  %119 = load ptr, ptr %118, align 8
  %120 = getelementptr inbounds %struct.lexbor_mem_chunk, ptr %119, i32 0, i32 4
  store ptr %116, ptr %120, align 8
  %121 = load ptr, ptr %8, align 8
  %122 = getelementptr inbounds %struct.lexbor_mem_chunk, ptr %121, i32 0, i32 3
  %123 = load ptr, ptr %122, align 8
  %124 = load ptr, ptr %7, align 8
  %125 = getelementptr inbounds %struct.lexbor_mem, ptr %124, i32 0, i32 0
  store ptr %123, ptr %125, align 8
  %126 = load ptr, ptr %7, align 8
  %127 = getelementptr inbounds %struct.lexbor_mem, ptr %126, i32 0, i32 3
  %128 = load i64, ptr %127, align 8
  %129 = add i64 %128, 1
  store i64 %129, ptr %127, align 8
  br label %130

130:                                              ; preds = %115, %16
  %131 = load ptr, ptr %7, align 8
  %132 = getelementptr inbounds %struct.lexbor_mem, ptr %131, i32 0, i32 0
  %133 = load ptr, ptr %132, align 8
  %134 = getelementptr inbounds %struct.lexbor_mem_chunk, ptr %133, i32 0, i32 0
  %135 = load ptr, ptr %134, align 8
  %136 = load ptr, ptr %7, align 8
  %137 = getelementptr inbounds %struct.lexbor_mem, ptr %136, i32 0, i32 0
  %138 = load ptr, ptr %137, align 8
  %139 = getelementptr inbounds %struct.lexbor_mem_chunk, ptr %138, i32 0, i32 1
  %140 = load i64, ptr %139, align 8
  %141 = getelementptr inbounds i8, ptr %135, i64 %140
  store ptr %141, ptr %6, align 8
  %142 = load i64, ptr %5, align 8
  %143 = load ptr, ptr %7, align 8
  %144 = getelementptr inbounds %struct.lexbor_mem, ptr %143, i32 0, i32 0
  %145 = load ptr, ptr %144, align 8
  %146 = getelementptr inbounds %struct.lexbor_mem_chunk, ptr %145, i32 0, i32 1
  %147 = load i64, ptr %146, align 8
  %148 = add i64 %147, %142
  store i64 %148, ptr %146, align 8
  %149 = load ptr, ptr %6, align 8
  store ptr %149, ptr %3, align 8
  br label %150

150:                                              ; preds = %130, %114, %45, %39, %15
  %151 = load ptr, ptr %3, align 8
  ret ptr %151
}

; Function Attrs: nounwind uwtable
define internal i64 @lexbor_mem_align(i64 noundef %0) #0 {
  %2 = alloca i64, align 8
  store i64 %0, ptr %2, align 8
  %3 = load i64, ptr %2, align 8
  %4 = urem i64 %3, 8
  %5 = icmp ne i64 %4, 0
  br i1 %5, label %6, label %12

6:                                                ; preds = %1
  %7 = load i64, ptr %2, align 8
  %8 = load i64, ptr %2, align 8
  %9 = urem i64 %8, 8
  %10 = sub i64 8, %9
  %11 = add i64 %7, %10
  br label %14

12:                                               ; preds = %1
  %13 = load i64, ptr %2, align 8
  br label %14

14:                                               ; preds = %12, %6
  %15 = phi i64 [ %11, %6 ], [ %13, %12 ]
  ret i64 %15
}

; Function Attrs: nounwind uwtable
define hidden ptr @lexbor_mraw_alloc(ptr noundef %0, i64 noundef %1) #0 {
  %3 = alloca ptr, align 8
  %4 = alloca ptr, align 8
  %5 = alloca i64, align 8
  %6 = alloca ptr, align 8
  store ptr %0, ptr %4, align 8
  store i64 %1, ptr %5, align 8
  %7 = load i64, ptr %5, align 8
  %8 = call i64 @lexbor_mem_align(i64 noundef %7)
  store i64 %8, ptr %5, align 8
  %9 = load ptr, ptr %4, align 8
  %10 = getelementptr inbounds %struct.lexbor_mraw_t, ptr %9, i32 0, i32 1
  %11 = load ptr, ptr %10, align 8
  %12 = getelementptr inbounds %struct.lexbor_bst, ptr %11, i32 0, i32 2
  %13 = load i64, ptr %12, align 8
  %14 = icmp ne i64 %13, 0
  br i1 %14, label %15, label %34

15:                                               ; preds = %2
  %16 = load ptr, ptr %4, align 8
  %17 = getelementptr inbounds %struct.lexbor_mraw_t, ptr %16, i32 0, i32 1
  %18 = load ptr, ptr %17, align 8
  %19 = load ptr, ptr %4, align 8
  %20 = getelementptr inbounds %struct.lexbor_mraw_t, ptr %19, i32 0, i32 1
  %21 = load ptr, ptr %20, align 8
  %22 = getelementptr inbounds %struct.lexbor_bst, ptr %21, i32 0, i32 1
  %23 = load i64, ptr %5, align 8
  %24 = call ptr @lexbor_bst_remove_close(ptr noundef %18, ptr noundef %22, i64 noundef %23, ptr noundef null)
  store ptr %24, ptr %6, align 8
  %25 = load ptr, ptr %6, align 8
  %26 = icmp ne ptr %25, null
  br i1 %26, label %27, label %33

27:                                               ; preds = %15
  %28 = load ptr, ptr %4, align 8
  %29 = getelementptr inbounds %struct.lexbor_mraw_t, ptr %28, i32 0, i32 2
  %30 = load i64, ptr %29, align 8
  %31 = add i64 %30, 1
  store i64 %31, ptr %29, align 8
  %32 = load ptr, ptr %6, align 8
  store ptr %32, ptr %3, align 8
  br label %52

33:                                               ; preds = %15
  br label %34

34:                                               ; preds = %33, %2
  %35 = load ptr, ptr %4, align 8
  %36 = load i64, ptr %5, align 8
  %37 = add i64 %36, 8
  %38 = call ptr @lexbor_mraw_mem_alloc(ptr noundef %35, i64 noundef %37)
  store ptr %38, ptr %6, align 8
  %39 = load ptr, ptr %6, align 8
  %40 = icmp eq ptr %39, null
  br i1 %40, label %41, label %42

41:                                               ; preds = %34
  store ptr null, ptr %3, align 8
  br label %52

42:                                               ; preds = %34
  %43 = load ptr, ptr %4, align 8
  %44 = getelementptr inbounds %struct.lexbor_mraw_t, ptr %43, i32 0, i32 2
  %45 = load i64, ptr %44, align 8
  %46 = add i64 %45, 1
  store i64 %46, ptr %44, align 8
  br label %47

47:                                               ; preds = %42
  %48 = load ptr, ptr %6, align 8
  call void @llvm.memcpy.p0.p0.i64(ptr align 1 %48, ptr align 8 %5, i64 8, i1 false)
  br label %49

49:                                               ; preds = %47
  %50 = load ptr, ptr %6, align 8
  %51 = getelementptr inbounds i8, ptr %50, i64 8
  store ptr %51, ptr %3, align 8
  br label %52

52:                                               ; preds = %49, %41, %27
  %53 = load ptr, ptr %3, align 8
  ret ptr %53
}