; Function Attrs: nounwind uwtable
define hidden ptr @lexbor_mraw_alloc(ptr nocapture noundef %0, i64 noundef %1) local_unnamed_addr #0 {
  %.biased.i = add i64 %1, 7
  %3 = and i64 %.biased.i, -8
  %4 = getelementptr inbounds i8, ptr %0, i64 8
  %5 = load ptr, ptr %4, align 8
  %6 = getelementptr inbounds i8, ptr %5, i64 16
  %7 = load i64, ptr %6, align 8
  %.not = icmp eq i64 %7, 0
  br i1 %.not, label %15, label %8

8:                                                ; preds = %2
  %9 = getelementptr inbounds i8, ptr %5, i64 8
  %10 = tail call ptr @lexbor_bst_remove_close(ptr noundef nonnull %5, ptr noundef nonnull %9, i64 noundef %3, ptr noundef null) #7
  %.not16 = icmp eq ptr %10, null
  br i1 %.not16, label %15, label %11

11:                                               ; preds = %8
  %12 = getelementptr inbounds i8, ptr %0, i64 16
  %13 = load i64, ptr %12, align 8
  %14 = add i64 %13, 1
  store i64 %14, ptr %12, align 8
  br label %lexbor_mraw_mem_alloc.exit.thread

15:                                               ; preds = %8, %2
  %16 = add i64 %3, 8
  %17 = load ptr, ptr %0, align 8
  %18 = icmp eq i64 %16, 0
  br i1 %18, label %lexbor_mraw_mem_alloc.exit.thread, label %19

19:                                               ; preds = %15
  %20 = load ptr, ptr %17, align 8
  %21 = getelementptr inbounds i8, ptr %20, i64 8
  %22 = load i64, ptr %21, align 8
  %23 = add i64 %22, %16
  %24 = getelementptr inbounds i8, ptr %20, i64 16
  %25 = load i64, ptr %24, align 8
  %26 = icmp ugt i64 %23, %25
  br i1 %26, label %27, label %62

27:                                               ; preds = %19
  %28 = getelementptr inbounds i8, ptr %17, i64 24
  %29 = load i64, ptr %28, align 8
  %30 = icmp eq i64 %29, -1
  br i1 %30, label %lexbor_mraw_mem_alloc.exit.thread, label %31

31:                                               ; preds = %27
  %32 = icmp eq i64 %22, 0
  br i1 %32, label %33, label %37

33:                                               ; preds = %31
  %34 = tail call ptr @lexbor_mem_chunk_destroy(ptr noundef nonnull %17, ptr noundef nonnull %20, i1 noundef zeroext false) #7
  %35 = tail call ptr @lexbor_mem_chunk_init(ptr noundef nonnull %17, ptr noundef nonnull %20, i64 noundef %16) #7
  store i64 %16, ptr %21, align 8
  %36 = load ptr, ptr %20, align 8
  br label %lexbor_mraw_mem_alloc.exit

37:                                               ; preds = %31
  %38 = sub i64 %25, %22
  %39 = and i64 %38, -8
  %40 = icmp ugt i64 %39, 8
  br i1 %40, label %41, label %53

41:                                               ; preds = %37
  %42 = add i64 %39, -8
  %43 = load ptr, ptr %20, align 8
  %44 = getelementptr inbounds i8, ptr %43, i64 %22
  store i64 %42, ptr %44, align 1
  %45 = load ptr, ptr %4, align 8
  %46 = getelementptr inbounds i8, ptr %45, i64 8
  %47 = load ptr, ptr %20, align 8
  %48 = load i64, ptr %21, align 8
  %49 = getelementptr inbounds i8, ptr %47, i64 %48
  %50 = getelementptr inbounds i8, ptr %49, i64 8
  %51 = tail call ptr @lexbor_bst_insert(ptr noundef %45, ptr noundef nonnull %46, i64 noundef %42, ptr noundef nonnull %50) #7
  %52 = load i64, ptr %24, align 8
  store i64 %52, ptr %21, align 8
  br label %53

53:                                               ; preds = %41, %37
  %54 = tail call ptr @lexbor_mem_chunk_make(ptr noundef nonnull %17, i64 noundef %16) #7
  %55 = getelementptr inbounds i8, ptr %20, i64 24
  store ptr %54, ptr %55, align 8
  %56 = icmp eq ptr %54, null
  br i1 %56, label %lexbor_mraw_mem_alloc.exit.thread, label %57

57:                                               ; preds = %53
  %58 = getelementptr inbounds i8, ptr %54, i64 32
  store ptr %20, ptr %58, align 8
  %59 = load ptr, ptr %55, align 8
  store ptr %59, ptr %17, align 8
  %60 = load i64, ptr %28, align 8
  %61 = add i64 %60, 1
  store i64 %61, ptr %28, align 8
  %.phi.trans.insert.i = getelementptr inbounds i8, ptr %59, i64 8
  %.pre.i = load i64, ptr %.phi.trans.insert.i, align 8
  %.pre48.i = add i64 %.pre.i, %16
  br label %62

62:                                               ; preds = %57, %19
  %.pre-phi.i = phi i64 [ %.pre48.i, %57 ], [ %23, %19 ]
  %63 = phi i64 [ %.pre.i, %57 ], [ %22, %19 ]
  %64 = phi ptr [ %59, %57 ], [ %20, %19 ]
  %65 = load ptr, ptr %64, align 8
  %66 = getelementptr inbounds i8, ptr %64, i64 8
  %67 = getelementptr inbounds i8, ptr %65, i64 %63
  store i64 %.pre-phi.i, ptr %66, align 8
  br label %lexbor_mraw_mem_alloc.exit

lexbor_mraw_mem_alloc.exit:                       ; preds = %33, %62
  %.0.i = phi ptr [ %36, %33 ], [ %67, %62 ]
  %68 = icmp eq ptr %.0.i, null
  br i1 %68, label %lexbor_mraw_mem_alloc.exit.thread, label %69

69:                                               ; preds = %lexbor_mraw_mem_alloc.exit
  %70 = getelementptr inbounds i8, ptr %0, i64 16
  %71 = load i64, ptr %70, align 8
  %72 = add i64 %71, 1
  store i64 %72, ptr %70, align 8
  store i64 %3, ptr %.0.i, align 1
  %73 = getelementptr inbounds i8, ptr %.0.i, i64 8
  br label %lexbor_mraw_mem_alloc.exit.thread

lexbor_mraw_mem_alloc.exit.thread:                ; preds = %53, %27, %15, %lexbor_mraw_mem_alloc.exit, %69, %11
  %.0 = phi ptr [ %10, %11 ], [ %73, %69 ], [ null, %lexbor_mraw_mem_alloc.exit ], [ null, %15 ], [ null, %27 ], [ null, %53 ]
  ret ptr %.0
}